target datalayout = "e-m:e-p270:32:32-p271:32:32-p272:64:64-i64:64-i128:128-f80:128-n8:16:32:64-S128"
target triple = "x86_64-pc-linux-gnu"

%"struct.std::nothrow_t" = type { i8 }

@_ZSt7nothrow = external global %"struct.std::nothrow_t", align 1
@_ZN6pj_ctxC1ERKS_ = hidden unnamed_addr alias void (ptr, ptr), ptr @_ZN6pj_ctxC2ERKS_

; Function Attrs: mustprogress uwtable
define ptr @proj_context_clone(ptr noundef %0) #0 personality ptr @__gxx_personality_v0 {
  %2 = alloca ptr, align 8
  %3 = alloca ptr, align 8
  %4 = alloca ptr, align 8
  %5 = alloca i1, align 1
  %6 = alloca ptr, align 8
  %7 = alloca i32, align 4
  store ptr %0, ptr %3, align 8
  %8 = load ptr, ptr %3, align 8
  %9 = icmp eq ptr null, %8
  br i1 %9, label %10, label %12

10:                                               ; preds = %1
  %11 = call ptr @proj_context_create()
  store ptr %11, ptr %2, align 8
  br label %28

12:                                               ; preds = %1
  %13 = call noalias noundef ptr @_ZnwmRKSt9nothrow_t(i64 noundef 520, ptr noundef nonnull align 1 dereferenceable(1) @_ZSt7nothrow) #19
  %14 = icmp eq ptr %13, null
  store i1 false, ptr %5, align 1
  br i1 %14, label %18, label %15

15:                                               ; preds = %12
  store ptr %13, ptr %4, align 8
  store i1 true, ptr %5, align 1
  %16 = load ptr, ptr %3, align 8
  invoke void @_ZN6pj_ctxC1ERKS_(ptr noundef nonnull align 8 dereferenceable(516) %13, ptr noundef nonnull align 8 dereferenceable(516) %16)
          to label %17 unwind label %20

17:                                               ; preds = %15
  br label %18

18:                                               ; preds = %17, %12
  %19 = phi ptr [ %13, %17 ], [ null, %12 ]
  store ptr %19, ptr %2, align 8
  br label %28

20:                                               ; preds = %15
  %21 = landingpad { ptr, i32 }
          cleanup
  %22 = extractvalue { ptr, i32 } %21, 0
  store ptr %22, ptr %6, align 8
  %23 = extractvalue { ptr, i32 } %21, 1
  store i32 %23, ptr %7, align 4
  %24 = load i1, ptr %5, align 1
  br i1 %24, label %25, label %27

25:                                               ; preds = %20
  %26 = load ptr, ptr %4, align 8
  call void @_ZdlPvRKSt9nothrow_t(ptr noundef %26, ptr noundef nonnull align 1 dereferenceable(1) @_ZSt7nothrow) #17
  br label %27

27:                                               ; preds = %25, %20
  br label %30

28:                                               ; preds = %18, %10
  %29 = load ptr, ptr %2, align 8
  ret ptr %29

30:                                               ; preds = %27
  %31 = load ptr, ptr %6, align 8
  %32 = load i32, ptr %7, align 4
  %33 = insertvalue { ptr, i32 } poison, ptr %31, 0
  %34 = insertvalue { ptr, i32 } %33, i32 %32, 1
  resume { ptr, i32 } %34
}