; Function Attrs: mustprogress uwtable
define ptr @proj_context_clone(ptr noundef %0) local_unnamed_addr #0 personality ptr @__gxx_personality_v0 {
  %2 = icmp eq ptr %0, null
  br i1 %2, label %3, label %5

3:                                                ; preds = %1
  %4 = tail call ptr @proj_context_create()
  br label %11

5:                                                ; preds = %1
  %6 = tail call noalias noundef dereferenceable_or_null(520) ptr @_ZnwmRKSt9nothrow_t(i64 noundef 520, ptr noundef nonnull align 1 dereferenceable(1) @_ZSt7nothrow) #22
  %7 = icmp eq ptr %6, null
  br i1 %7, label %11, label %8

8:                                                ; preds = %5
  invoke void @_ZN6pj_ctxC2ERKS_(ptr noundef nonnull align 8 dereferenceable(516) %6, ptr noundef nonnull align 8 dereferenceable(516) %0)
          to label %11 unwind label %9

9:                                                ; preds = %8
  %10 = landingpad { ptr, i32 }
          cleanup
  tail call void @_ZdlPvRKSt9nothrow_t(ptr noundef nonnull %6, ptr noundef nonnull align 1 dereferenceable(1) @_ZSt7nothrow) #19
  resume { ptr, i32 } %10

11:                                               ; preds = %5, %8, %3
  %.0 = phi ptr [ %4, %3 ], [ null, %5 ], [ %6, %8 ]
  ret ptr %.0
}